(lp0
(lp1
(lp2
(lp3
(lp4
(lp5
(lp6
(lp7
(lp8
(lp9
S'lol'
p10
ag10
ag10
ag10
ag10
ag10
ag10
ag10
ag10
ag10
aag9
ag9
ag9
ag9
ag9
ag9
ag9
ag9
ag9
aag8
ag8
ag8
ag8
ag8
ag8
ag8
ag8
ag8
aag7
ag7
ag7
ag7
ag7
ag7
ag7
ag7
ag7
aag6
ag6
ag6
ag6
ag6
ag6
ag6
ag6
ag6
aag5
ag5
ag5
ag5
ag5
ag5
ag5
ag5
ag5
aag4
ag4
ag4
ag4
ag4
ag4
ag4
ag4
ag4
aag3
ag3
ag3
ag3
ag3
ag3
ag3
ag3
ag3
aag2
ag2
ag2
ag2
ag2
ag2
ag2
ag2
ag2
aag1
ag1
ag1
ag1
ag1
ag1
ag1
ag1
ag1
a.